; Function Attrs: nounwind uwtable
define ptr @l___private_Lean_Elab_Tactic_BVDecide_Frontend_Normalize_Enums_0__Lean_Elab_Tactic_BVDecide_Frontend_Normalize_getBitVecSize(ptr noundef %0) local_unnamed_addr #1 {
  %2 = tail call ptr @lean_nat_log2(ptr noundef %0) #7
  %3 = tail call ptr @lean_nat_pow(ptr noundef nonnull inttoptr (i64 5 to ptr), ptr noundef %2) #7
  %4 = ptrtoint ptr %3 to i64
  %5 = and i64 %4, 1
  %.not = icmp eq i64 %5, 0
  br i1 %.not, label %11, label %6, !prof !14

6:                                                ; preds = %1
  %7 = ptrtoint ptr %0 to i64
  %8 = and i64 %7, 1
  %.not22 = icmp eq i64 %8, 0
  br i1 %.not22, label %lean_nat_eq.exit.thread19, label %lean_nat_eq.exit.thread, !prof !14

lean_nat_eq.exit.thread19:                        ; preds = %6
  %9 = tail call zeroext i1 @lean_nat_big_eq(ptr noundef %3, ptr noundef %0) #7
  br i1 %9, label %lean_dec.exit12, label %19

lean_nat_eq.exit.thread:                          ; preds = %6
  %10 = icmp eq ptr %3, %0
  br i1 %10, label %lean_dec.exit12, label %19

11:                                               ; preds = %1
  %12 = tail call zeroext i1 @lean_nat_big_eq(ptr noundef %3, ptr noundef %0) #7
  %13 = load i32, ptr %3, align 4, !tbaa !4
  %14 = icmp sgt i32 %13, 1
  br i1 %14, label %15, label %17, !prof !13

15:                                               ; preds = %11
  %16 = add nsw i32 %13, -1
  store i32 %16, ptr %3, align 4, !tbaa !4
  br i1 %12, label %lean_dec.exit12, label %19

17:                                               ; preds = %11
  %.not.i13 = icmp eq i32 %13, 0
  br i1 %.not.i13, label %lean_dec.exit, label %18

18:                                               ; preds = %17
  tail call void @lean_dec_ref_cold(ptr noundef nonnull %3) #7
  br i1 %12, label %lean_dec.exit12, label %19

lean_dec.exit:                                    ; preds = %17
  br i1 %12, label %lean_dec.exit12, label %19

19:                                               ; preds = %18, %15, %lean_nat_eq.exit.thread19, %lean_nat_eq.exit.thread, %lean_dec.exit
  %20 = ptrtoint ptr %2 to i64
  %21 = and i64 %20, 1
  %.not23 = icmp eq i64 %21, 0
  br i1 %.not23, label %32, label %22, !prof !14

22:                                               ; preds = %19
  %23 = lshr i64 %20, 1
  %24 = add nuw i64 %23, 1
  %25 = icmp sgt i64 %24, -1
  br i1 %25, label %26, label %30, !prof !13

26:                                               ; preds = %22
  %27 = shl nuw i64 %24, 1
  %28 = or disjoint i64 %27, 1
  %29 = inttoptr i64 %28 to ptr
  br label %lean_dec.exit12

30:                                               ; preds = %22
  %31 = tail call ptr @lean_big_usize_to_nat(i64 noundef range(i64 0, -1) %24) #7
  br label %lean_dec.exit12

32:                                               ; preds = %19
  %33 = tail call ptr @lean_nat_big_add(ptr noundef %2, ptr noundef nonnull inttoptr (i64 3 to ptr)) #7
  %34 = load i32, ptr %2, align 4, !tbaa !4
  %35 = icmp sgt i32 %34, 1
  br i1 %35, label %36, label %38, !prof !13

36:                                               ; preds = %32
  %37 = add nsw i32 %34, -1
  store i32 %37, ptr %2, align 4, !tbaa !4
  br label %lean_dec.exit12

38:                                               ; preds = %32
  %.not.i = icmp eq i32 %34, 0
  br i1 %.not.i, label %lean_dec.exit12, label %39

39:                                               ; preds = %38
  tail call void @lean_dec_ref_cold(ptr noundef nonnull %2) #7
  br label %lean_dec.exit12

lean_dec.exit12:                                  ; preds = %18, %15, %lean_nat_eq.exit.thread19, %lean_nat_eq.exit.thread, %26, %30, %36, %38, %39, %lean_dec.exit
  %.0 = phi ptr [ %2, %lean_dec.exit ], [ %33, %36 ], [ %33, %38 ], [ %33, %39 ], [ %31, %30 ], [ %29, %26 ], [ %2, %lean_nat_eq.exit.thread ], [ %2, %lean_nat_eq.exit.thread19 ], [ %2, %15 ], [ %2, %18 ]
  ret ptr %.0
}